; ModuleID = '33/27.c'
source_filename = "33/27.c"
target datalayout = "e-m:e-p270:32:32-p271:32:32-p272:64:64-i64:64-f80:128-n8:16:32:64-S128"
target triple = "x86_64-pc-linux-gnu"

@.str = private unnamed_addr constant [3 x i8] c"%d\00", align 1
@.str.1 = private unnamed_addr constant [3 x i8] c"%s\00", align 1
@.str.2 = private unnamed_addr constant [2 x i8] c"T\00", align 1
@.str.3 = private unnamed_addr constant [2 x i8] c"A\00", align 1
@.str.4 = private unnamed_addr constant [2 x i8] c"C\00", align 1
@.str.5 = private unnamed_addr constant [2 x i8] c"G\00", align 1
@.str.6 = private unnamed_addr constant [2 x i8] c"\0A\00", align 1

; Function Attrs: noinline nounwind uwtable
define dso_local i32 @main() #0 {
  %1 = alloca i32, align 4
  %2 = alloca i32, align 4
  %3 = alloca i32, align 4
  %4 = alloca i32, align 4
  %5 = alloca [2000 x i8], align 16
  %6 = alloca i8*, align 8
  store i32 0, i32* %1, align 4
  %7 = call i32 (i8*, ...) @__isoc99_scanf(i8* getelementptr inbounds ([3 x i8], [3 x i8]* @.str, i64 0, i64 0), i32* %4)
  store i32 0, i32* %2, align 4
  br label %8

8:                                                ; preds = %61, %0
  %9 = load i32, i32* %2, align 4
  %10 = load i32, i32* %4, align 4
  %11 = icmp slt i32 %9, %10
  br i1 %11, label %12, label %64

12:                                               ; preds = %8
  %13 = getelementptr inbounds [2000 x i8], [2000 x i8]* %5, i64 0, i64 0
  %14 = call i32 (i8*, ...) @__isoc99_scanf(i8* getelementptr inbounds ([3 x i8], [3 x i8]* @.str.1, i64 0, i64 0), i8* %13)
  %15 = getelementptr inbounds [2000 x i8], [2000 x i8]* %5, i64 0, i64 0
  %16 = call i64 @strlen(i8* %15) #3
  %17 = trunc i64 %16 to i32
  store i32 %17, i32* %3, align 4
  %18 = getelementptr inbounds [2000 x i8], [2000 x i8]* %5, i64 0, i64 0
  store i8* %18, i8** %6, align 8
  %19 = getelementptr inbounds [2000 x i8], [2000 x i8]* %5, i64 0, i64 0
  store i8* %19, i8** %6, align 8
  br label %20

20:                                               ; preds = %56, %12
  %21 = load i8*, i8** %6, align 8
  %22 = getelementptr inbounds [2000 x i8], [2000 x i8]* %5, i64 0, i64 0
  %23 = load i32, i32* %3, align 4
  %24 = sext i32 %23 to i64
  %25 = getelementptr inbounds i8, i8* %22, i64 %24
  %26 = icmp ult i8* %21, %25
  br i1 %26, label %27, label %59

27:                                               ; preds = %20
  %28 = load i8*, i8** %6, align 8
  %29 = load i8, i8* %28, align 1
  %30 = sext i8 %29 to i32
  %31 = icmp eq i32 %30, 65
  br i1 %31, label %32, label %34

32:                                               ; preds = %27
  %33 = call i32 (i8*, ...) @printf(i8* getelementptr inbounds ([2 x i8], [2 x i8]* @.str.2, i64 0, i64 0))
  br label %34

34:                                               ; preds = %32, %27
  %35 = load i8*, i8** %6, align 8
  %36 = load i8, i8* %35, align 1
  %37 = sext i8 %36 to i32
  %38 = icmp eq i32 %37, 84
  br i1 %38, label %39, label %41

39:                                               ; preds = %34
  %40 = call i32 (i8*, ...) @printf(i8* getelementptr inbounds ([2 x i8], [2 x i8]* @.str.3, i64 0, i64 0))
  br label %41

41:                                               ; preds = %39, %34
  %42 = load i8*, i8** %6, align 8
  %43 = load i8, i8* %42, align 1
  %44 = sext i8 %43 to i32
  %45 = icmp eq i32 %44, 71
  br i1 %45, label %46, label %48

46:                                               ; preds = %41
  %47 = call i32 (i8*, ...) @printf(i8* getelementptr inbounds ([2 x i8], [2 x i8]* @.str.4, i64 0, i64 0))
  br label %48

48:                                               ; preds = %46, %41
  %49 = load i8*, i8** %6, align 8
  %50 = load i8, i8* %49, align 1
  %51 = sext i8 %50 to i32
  %52 = icmp eq i32 %51, 67
  br i1 %52, label %53, label %55

53:                                               ; preds = %48
  %54 = call i32 (i8*, ...) @printf(i8* getelementptr inbounds ([2 x i8], [2 x i8]* @.str.5, i64 0, i64 0))
  br label %55

55:                                               ; preds = %53, %48
  br label %56

56:                                               ; preds = %55
  %57 = load i8*, i8** %6, align 8
  %58 = getelementptr inbounds i8, i8* %57, i32 1
  store i8* %58, i8** %6, align 8
  br label %20

59:                                               ; preds = %20
  %60 = call i32 (i8*, ...) @printf(i8* getelementptr inbounds ([2 x i8], [2 x i8]* @.str.6, i64 0, i64 0))
  br label %61

61:                                               ; preds = %59
  %62 = load i32, i32* %2, align 4
  %63 = add nsw i32 %62, 1
  store i32 %63, i32* %2, align 4
  br label %8

64:                                               ; preds = %8
  ret i32 0
}

declare dso_local i32 @__isoc99_scanf(i8*, ...) #1

; Function Attrs: nounwind readonly
declare dso_local i64 @strlen(i8*) #2

declare dso_local i32 @printf(i8*, ...) #1


!llvm.module.flags = !{!0}
!llvm.ident = !{!1}

!0 = !{i32 1, !"wchar_size", i32 4}
!1 = !{!"clang version 10.0.0-4ubuntu1 "}
